target datalayout = "e-m:e-p270:32:32-p271:32:32-p272:64:64-i64:64-i128:128-f80:128-n8:16:32:64-S128"
target triple = "x86_64-pc-linux-gnu"

%struct.b2Vec2 = type { float, float }
%struct.b2Filter = type { i64, i64, i32 }
%struct.b2Shape = type { i32, i32, i32, i32, i32, i32, float, float, float, float, float, i32, %struct.b2AABB, %struct.b2AABB, %struct.b2Vec2, i32, %struct.b2Filter, ptr, i32, %union.anon.0, i16, i8, i8, i8, i8 }
%struct.b2AABB = type { %struct.b2Vec2, %struct.b2Vec2 }
%union.anon.0 = type { %struct.b2Polygon }
%struct.b2Polygon = type { [8 x %struct.b2Vec2], [8 x %struct.b2Vec2], %struct.b2Vec2, float, i32 }
%struct.b2Circle = type { %struct.b2Vec2, float }
%struct.b2Capsule = type { %struct.b2Vec2, %struct.b2Vec2, float }
%struct.b2Segment = type { %struct.b2Vec2, %struct.b2Vec2 }
%struct.b2ChainSegment = type { %struct.b2Vec2, %struct.b2Segment, %struct.b2Vec2, i32 }

; Function Attrs: inlinehint nounwind uwtable
define internal float @b2MaxFloat(float noundef %0, float noundef %1) #7 {
  %3 = alloca float, align 4
  %4 = alloca float, align 4
  store float %0, ptr %3, align 4, !tbaa !50
  store float %1, ptr %4, align 4, !tbaa !50
  %5 = load float, ptr %3, align 4, !tbaa !50
  %6 = load float, ptr %4, align 4, !tbaa !50
  %7 = fcmp ogt float %5, %6
  br i1 %7, label %8, label %10

8:                                                ; preds = %2
  %9 = load float, ptr %3, align 4, !tbaa !50
  br label %12

10:                                               ; preds = %2
  %11 = load float, ptr %4, align 4, !tbaa !50
  br label %12

12:                                               ; preds = %10, %8
  %13 = phi float [ %9, %8 ], [ %11, %10 ]
  ret float %13
}

; Function Attrs: inlinehint nounwind uwtable
define internal float @b2MinFloat(float noundef %0, float noundef %1) #7 {
  %3 = alloca float, align 4
  %4 = alloca float, align 4
  store float %0, ptr %3, align 4, !tbaa !50
  store float %1, ptr %4, align 4, !tbaa !50
  %5 = load float, ptr %3, align 4, !tbaa !50
  %6 = load float, ptr %4, align 4, !tbaa !50
  %7 = fcmp olt float %5, %6
  br i1 %7, label %8, label %10

8:                                                ; preds = %2
  %9 = load float, ptr %3, align 4, !tbaa !50
  br label %12

10:                                               ; preds = %2
  %11 = load float, ptr %4, align 4, !tbaa !50
  br label %12

12:                                               ; preds = %10, %8
  %13 = phi float [ %9, %8 ], [ %11, %10 ]
  ret float %13
}

; Function Attrs: inlinehint nounwind uwtable
define internal float @b2AbsFloat(float noundef %0) #7 {
  %2 = alloca float, align 4
  store float %0, ptr %2, align 4, !tbaa !50
  %3 = load float, ptr %2, align 4, !tbaa !50
  %4 = fcmp olt float %3, 0.000000e+00
  br i1 %4, label %5, label %8

5:                                                ; preds = %1
  %6 = load float, ptr %2, align 4, !tbaa !50
  %7 = fneg float %6
  br label %10

8:                                                ; preds = %1
  %9 = load float, ptr %2, align 4, !tbaa !50
  br label %10

10:                                               ; preds = %8, %5
  %11 = phi float [ %7, %5 ], [ %9, %8 ]
  ret float %11
}

; Function Attrs: inlinehint nounwind uwtable
define internal float @b2Dot(<2 x float> %0, <2 x float> %1) #5 {
  %3 = alloca %struct.b2Vec2, align 4
  %4 = alloca %struct.b2Vec2, align 4
  store <2 x float> %0, ptr %3, align 4
  store <2 x float> %1, ptr %4, align 4
  %5 = getelementptr inbounds nuw %struct.b2Vec2, ptr %3, i32 0, i32 0
  %6 = load float, ptr %5, align 4, !tbaa !55
  %7 = getelementptr inbounds nuw %struct.b2Vec2, ptr %4, i32 0, i32 0
  %8 = load float, ptr %7, align 4, !tbaa !55
  %9 = fmul float %6, %8
  %10 = getelementptr inbounds nuw %struct.b2Vec2, ptr %3, i32 0, i32 1
  %11 = load float, ptr %10, align 4, !tbaa !56
  %12 = getelementptr inbounds nuw %struct.b2Vec2, ptr %4, i32 0, i32 1
  %13 = load float, ptr %12, align 4, !tbaa !56
  %14 = fmul float %11, %13
  %15 = fadd float %9, %14
  ret float %15
}

; Function Attrs: inlinehint nounwind uwtable
define internal <2 x float> @b2Sub(<2 x float> %0, <2 x float> %1) #5 {
  %3 = alloca %struct.b2Vec2, align 4
  %4 = alloca %struct.b2Vec2, align 4
  %5 = alloca %struct.b2Vec2, align 4
  store <2 x float> %0, ptr %4, align 4
  store <2 x float> %1, ptr %5, align 4
  %6 = getelementptr inbounds nuw %struct.b2Vec2, ptr %3, i32 0, i32 0
  %7 = getelementptr inbounds nuw %struct.b2Vec2, ptr %4, i32 0, i32 0
  %8 = load float, ptr %7, align 4, !tbaa !55
  %9 = getelementptr inbounds nuw %struct.b2Vec2, ptr %5, i32 0, i32 0
  %10 = load float, ptr %9, align 4, !tbaa !55
  %11 = fsub float %8, %10
  store float %11, ptr %6, align 4, !tbaa !55
  %12 = getelementptr inbounds nuw %struct.b2Vec2, ptr %3, i32 0, i32 1
  %13 = getelementptr inbounds nuw %struct.b2Vec2, ptr %4, i32 0, i32 1
  %14 = load float, ptr %13, align 4, !tbaa !56
  %15 = getelementptr inbounds nuw %struct.b2Vec2, ptr %5, i32 0, i32 1
  %16 = load float, ptr %15, align 4, !tbaa !56
  %17 = fsub float %14, %16
  store float %17, ptr %12, align 4, !tbaa !56
  %18 = load <2 x float>, ptr %3, align 4
  ret <2 x float> %18
}

; Function Attrs: nounwind uwtable
define hidden float @b2GetShapeProjectedPerimeter(ptr noundef %0, <2 x float> %1) #3 {
  %3 = alloca float, align 4
  %4 = alloca %struct.b2Vec2, align 4
  %5 = alloca ptr, align 8
  %6 = alloca %struct.b2Vec2, align 4
  %7 = alloca float, align 4
  %8 = alloca ptr, align 8
  %9 = alloca i32, align 4
  %10 = alloca float, align 4
  %11 = alloca float, align 4
  %12 = alloca float, align 4
  %13 = alloca i32, align 4
  %14 = alloca float, align 4
  %15 = alloca float, align 4
  %16 = alloca float, align 4
  %17 = alloca float, align 4
  store <2 x float> %1, ptr %4, align 4
  store ptr %0, ptr %5, align 8, !tbaa !34
  %18 = load ptr, ptr %5, align 8, !tbaa !34
  %19 = getelementptr inbounds nuw %struct.b2Shape, ptr %18, i32 0, i32 5
  %20 = load i32, ptr %19, align 4, !tbaa !201
  switch i32 %20, label %132 [
    i32 1, label %21
    i32 0, label %42
    i32 3, label %48
    i32 2, label %96
    i32 4, label %113
  ]

21:                                               ; preds = %2
  call void @llvm.lifetime.start.p0(i64 8, ptr %6) #9
  %22 = load ptr, ptr %5, align 8, !tbaa !34
  %23 = getelementptr inbounds nuw %struct.b2Shape, ptr %22, i32 0, i32 19
  %24 = getelementptr inbounds nuw %struct.b2Capsule, ptr %23, i32 0, i32 1
  %25 = load ptr, ptr %5, align 8, !tbaa !34
  %26 = getelementptr inbounds nuw %struct.b2Shape, ptr %25, i32 0, i32 19
  %27 = getelementptr inbounds nuw %struct.b2Capsule, ptr %26, i32 0, i32 0
  %28 = load <2 x float>, ptr %24, align 4
  %29 = load <2 x float>, ptr %27, align 4
  %30 = call <2 x float> @b2Sub(<2 x float> %28, <2 x float> %29)
  store <2 x float> %30, ptr %6, align 4
  call void @llvm.lifetime.start.p0(i64 4, ptr %7) #9
  %31 = load <2 x float>, ptr %6, align 4
  %32 = load <2 x float>, ptr %4, align 4
  %33 = call float @b2Dot(<2 x float> %31, <2 x float> %32)
  %34 = call float @b2AbsFloat(float noundef %33)
  store float %34, ptr %7, align 4, !tbaa !50
  %35 = load float, ptr %7, align 4, !tbaa !50
  %36 = load ptr, ptr %5, align 8, !tbaa !34
  %37 = getelementptr inbounds nuw %struct.b2Shape, ptr %36, i32 0, i32 19
  %38 = getelementptr inbounds nuw %struct.b2Capsule, ptr %37, i32 0, i32 2
  %39 = load float, ptr %38, align 4, !tbaa !198
  %40 = fmul float 2.000000e+00, %39
  %41 = fadd float %35, %40
  store float %41, ptr %3, align 4
  call void @llvm.lifetime.end.p0(i64 4, ptr %7) #9
  call void @llvm.lifetime.end.p0(i64 8, ptr %6) #9
  br label %133

42:                                               ; preds = %2
  %43 = load ptr, ptr %5, align 8, !tbaa !34
  %44 = getelementptr inbounds nuw %struct.b2Shape, ptr %43, i32 0, i32 19
  %45 = getelementptr inbounds nuw %struct.b2Circle, ptr %44, i32 0, i32 1
  %46 = load float, ptr %45, align 4, !tbaa !198
  %47 = fmul float 2.000000e+00, %46
  store float %47, ptr %3, align 4
  br label %133

48:                                               ; preds = %2
  call void @llvm.lifetime.start.p0(i64 8, ptr %8) #9
  %49 = load ptr, ptr %5, align 8, !tbaa !34
  %50 = getelementptr inbounds nuw %struct.b2Shape, ptr %49, i32 0, i32 19
  %51 = getelementptr inbounds nuw %struct.b2Polygon, ptr %50, i32 0, i32 0
  %52 = getelementptr inbounds [8 x %struct.b2Vec2], ptr %51, i64 0, i64 0
  store ptr %52, ptr %8, align 8, !tbaa !168
  call void @llvm.lifetime.start.p0(i64 4, ptr %9) #9
  %53 = load ptr, ptr %5, align 8, !tbaa !34
  %54 = getelementptr inbounds nuw %struct.b2Shape, ptr %53, i32 0, i32 19
  %55 = getelementptr inbounds nuw %struct.b2Polygon, ptr %54, i32 0, i32 4
  %56 = load i32, ptr %55, align 4, !tbaa !198
  store i32 %56, ptr %9, align 4, !tbaa !3
  call void @llvm.lifetime.start.p0(i64 4, ptr %10) #9
  %57 = load ptr, ptr %8, align 8, !tbaa !168
  %58 = getelementptr inbounds %struct.b2Vec2, ptr %57, i64 0
  %59 = load <2 x float>, ptr %58, align 4
  %60 = load <2 x float>, ptr %4, align 4
  %61 = call float @b2Dot(<2 x float> %59, <2 x float> %60)
  store float %61, ptr %10, align 4, !tbaa !50
  call void @llvm.lifetime.start.p0(i64 4, ptr %11) #9
  %62 = load float, ptr %10, align 4, !tbaa !50
  store float %62, ptr %11, align 4, !tbaa !50
  call void @llvm.lifetime.start.p0(i64 4, ptr %12) #9
  %63 = load float, ptr %10, align 4, !tbaa !50
  store float %63, ptr %12, align 4, !tbaa !50
  call void @llvm.lifetime.start.p0(i64 4, ptr %13) #9
  store i32 1, ptr %13, align 4, !tbaa !3
  br label %64

64:                                               ; preds = %83, %48
  %65 = load i32, ptr %13, align 4, !tbaa !3
  %66 = load i32, ptr %9, align 4, !tbaa !3
  %67 = icmp slt i32 %65, %66
  br i1 %67, label %69, label %68

68:                                               ; preds = %64
  call void @llvm.lifetime.end.p0(i64 4, ptr %13) #9
  br label %86

69:                                               ; preds = %64
  %70 = load ptr, ptr %8, align 8, !tbaa !168
  %71 = load i32, ptr %13, align 4, !tbaa !3
  %72 = sext i32 %71 to i64
  %73 = getelementptr inbounds %struct.b2Vec2, ptr %70, i64 %72
  %74 = load <2 x float>, ptr %73, align 4
  %75 = load <2 x float>, ptr %4, align 4
  %76 = call float @b2Dot(<2 x float> %74, <2 x float> %75)
  store float %76, ptr %10, align 4, !tbaa !50
  %77 = load float, ptr %11, align 4, !tbaa !50
  %78 = load float, ptr %10, align 4, !tbaa !50
  %79 = call float @b2MinFloat(float noundef %77, float noundef %78)
  store float %79, ptr %11, align 4, !tbaa !50
  %80 = load float, ptr %12, align 4, !tbaa !50
  %81 = load float, ptr %10, align 4, !tbaa !50
  %82 = call float @b2MaxFloat(float noundef %80, float noundef %81)
  store float %82, ptr %12, align 4, !tbaa !50
  br label %83

83:                                               ; preds = %69
  %84 = load i32, ptr %13, align 4, !tbaa !3
  %85 = add nsw i32 %84, 1
  store i32 %85, ptr %13, align 4, !tbaa !3
  br label %64, !llvm.loop !233

86:                                               ; preds = %68
  %87 = load float, ptr %12, align 4, !tbaa !50
  %88 = load float, ptr %11, align 4, !tbaa !50
  %89 = fsub float %87, %88
  %90 = load ptr, ptr %5, align 8, !tbaa !34
  %91 = getelementptr inbounds nuw %struct.b2Shape, ptr %90, i32 0, i32 19
  %92 = getelementptr inbounds nuw %struct.b2Polygon, ptr %91, i32 0, i32 3
  %93 = load float, ptr %92, align 4, !tbaa !198
  %94 = fmul float 2.000000e+00, %93
  %95 = fadd float %89, %94
  store float %95, ptr %3, align 4
  call void @llvm.lifetime.end.p0(i64 4, ptr %12) #9
  call void @llvm.lifetime.end.p0(i64 4, ptr %11) #9
  call void @llvm.lifetime.end.p0(i64 4, ptr %10) #9
  call void @llvm.lifetime.end.p0(i64 4, ptr %9) #9
  call void @llvm.lifetime.end.p0(i64 8, ptr %8) #9
  br label %133

96:                                               ; preds = %2
  call void @llvm.lifetime.start.p0(i64 4, ptr %14) #9
  %97 = load ptr, ptr %5, align 8, !tbaa !34
  %98 = getelementptr inbounds nuw %struct.b2Shape, ptr %97, i32 0, i32 19
  %99 = getelementptr inbounds nuw %struct.b2Segment, ptr %98, i32 0, i32 0
  %100 = load <2 x float>, ptr %99, align 4
  %101 = load <2 x float>, ptr %4, align 4
  %102 = call float @b2Dot(<2 x float> %100, <2 x float> %101)
  store float %102, ptr %14, align 4, !tbaa !50
  call void @llvm.lifetime.start.p0(i64 4, ptr %15) #9
  %103 = load ptr, ptr %5, align 8, !tbaa !34
  %104 = getelementptr inbounds nuw %struct.b2Shape, ptr %103, i32 0, i32 19
  %105 = getelementptr inbounds nuw %struct.b2Segment, ptr %104, i32 0, i32 1
  %106 = load <2 x float>, ptr %105, align 4
  %107 = load <2 x float>, ptr %4, align 4
  %108 = call float @b2Dot(<2 x float> %106, <2 x float> %107)
  store float %108, ptr %15, align 4, !tbaa !50
  %109 = load float, ptr %15, align 4, !tbaa !50
  %110 = load float, ptr %14, align 4, !tbaa !50
  %111 = fsub float %109, %110
  %112 = call float @b2AbsFloat(float noundef %111)
  store float %112, ptr %3, align 4
  call void @llvm.lifetime.end.p0(i64 4, ptr %15) #9
  call void @llvm.lifetime.end.p0(i64 4, ptr %14) #9
  br label %133

113:                                              ; preds = %2
  call void @llvm.lifetime.start.p0(i64 4, ptr %16) #9
  %114 = load ptr, ptr %5, align 8, !tbaa !34
  %115 = getelementptr inbounds nuw %struct.b2Shape, ptr %114, i32 0, i32 19
  %116 = getelementptr inbounds nuw %struct.b2ChainSegment, ptr %115, i32 0, i32 1
  %117 = getelementptr inbounds nuw %struct.b2Segment, ptr %116, i32 0, i32 0
  %118 = load <2 x float>, ptr %117, align 4
  %119 = load <2 x float>, ptr %4, align 4
  %120 = call float @b2Dot(<2 x float> %118, <2 x float> %119)
  store float %120, ptr %16, align 4, !tbaa !50
  call void @llvm.lifetime.start.p0(i64 4, ptr %17) #9
  %121 = load ptr, ptr %5, align 8, !tbaa !34
  %122 = getelementptr inbounds nuw %struct.b2Shape, ptr %121, i32 0, i32 19
  %123 = getelementptr inbounds nuw %struct.b2ChainSegment, ptr %122, i32 0, i32 1
  %124 = getelementptr inbounds nuw %struct.b2Segment, ptr %123, i32 0, i32 1
  %125 = load <2 x float>, ptr %124, align 4
  %126 = load <2 x float>, ptr %4, align 4
  %127 = call float @b2Dot(<2 x float> %125, <2 x float> %126)
  store float %127, ptr %17, align 4, !tbaa !50
  %128 = load float, ptr %17, align 4, !tbaa !50
  %129 = load float, ptr %16, align 4, !tbaa !50
  %130 = fsub float %128, %129
  %131 = call float @b2AbsFloat(float noundef %130)
  store float %131, ptr %3, align 4
  call void @llvm.lifetime.end.p0(i64 4, ptr %17) #9
  call void @llvm.lifetime.end.p0(i64 4, ptr %16) #9
  br label %133

132:                                              ; preds = %2
  store float 0.000000e+00, ptr %3, align 4
  br label %133

133:                                              ; preds = %132, %113, %96, %86, %42, %21
  %134 = load float, ptr %3, align 4
  ret float %134
}