; Function Attrs: nofree norecurse nosync nounwind memory(argmem: read) uwtable
define hidden float @b2GetShapeProjectedPerimeter(ptr noundef readonly captures(none) %0, <2 x float> %1) local_unnamed_addr #7 {
  %3 = getelementptr inbounds nuw i8, ptr %0, i64 20
  %4 = load i32, ptr %3, align 4, !tbaa !171
  switch i32 %4, label %84 [
    i32 1, label %5
    i32 0, label %23
    i32 3, label %27
    i32 2, label %52
    i32 4, label %68
  ]

5:                                                ; preds = %2
  %6 = getelementptr inbounds nuw i8, ptr %0, i64 132
  %7 = getelementptr inbounds nuw i8, ptr %0, i64 140
  %8 = load <2 x float>, ptr %7, align 4
  %9 = load <2 x float>, ptr %6, align 4
  %10 = fsub <2 x float> %8, %9
  %11 = fsub <2 x float> %8, %9
  %12 = fmul <2 x float> %1, %10
  %13 = fmul <2 x float> %1, %11
  %shift = shufflevector <2 x float> %13, <2 x float> poison, <2 x i32> <i32 1, i32 poison>
  %14 = fadd <2 x float> %12, %shift
  %15 = extractelement <2 x float> %14, i64 0
  %16 = fcmp olt float %15, 0.000000e+00
  %17 = fneg float %15
  %18 = select i1 %16, float %17, float %15
  %19 = getelementptr inbounds nuw i8, ptr %0, i64 148
  %20 = load float, ptr %19, align 4, !tbaa !168
  %21 = fmul float %20, 2.000000e+00
  %22 = fadd float %21, %18
  br label %84

23:                                               ; preds = %2
  %24 = getelementptr inbounds nuw i8, ptr %0, i64 140
  %25 = load float, ptr %24, align 4, !tbaa !168
  %26 = fmul float %25, 2.000000e+00
  br label %84

27:                                               ; preds = %2
  %28 = getelementptr inbounds nuw i8, ptr %0, i64 132
  %29 = getelementptr inbounds nuw i8, ptr %0, i64 272
  %30 = load i32, ptr %29, align 4, !tbaa !168
  %31 = load <2 x float>, ptr %28, align 4
  %32 = fmul <2 x float> %1, %31
  %33 = fmul <2 x float> %1, %31
  %shift77 = shufflevector <2 x float> %33, <2 x float> poison, <2 x i32> <i32 1, i32 poison>
  %34 = fadd <2 x float> %32, %shift77
  %35 = extractelement <2 x float> %34, i64 0
  %36 = icmp sgt i32 %30, 1
  br i1 %36, label %.lr.ph.preheader, label %._crit_edge

.lr.ph.preheader:                                 ; preds = %27
  %wide.trip.count = zext nneg i32 %30 to i64
  br label %.lr.ph

._crit_edge:                                      ; preds = %.lr.ph, %27
  %.039.lcssa = phi float [ %35, %27 ], [ %51, %.lr.ph ]
  %.038.lcssa = phi float [ %35, %27 ], [ %49, %.lr.ph ]
  %37 = fsub float %.039.lcssa, %.038.lcssa
  %38 = getelementptr inbounds nuw i8, ptr %0, i64 268
  %39 = load float, ptr %38, align 4, !tbaa !168
  %40 = fmul float %39, 2.000000e+00
  %41 = fadd float %37, %40
  br label %84

.lr.ph:                                           ; preds = %.lr.ph.preheader, %.lr.ph
  %indvars.iv = phi i64 [ 1, %.lr.ph.preheader ], [ %indvars.iv.next, %.lr.ph ]
  %.03871 = phi float [ %35, %.lr.ph.preheader ], [ %49, %.lr.ph ]
  %.03970 = phi float [ %35, %.lr.ph.preheader ], [ %51, %.lr.ph ]
  %42 = getelementptr inbounds nuw %struct.b2Vec2, ptr %28, i64 %indvars.iv
  %43 = load <2 x float>, ptr %42, align 4
  %44 = fmul <2 x float> %1, %43
  %45 = fmul <2 x float> %1, %43
  %shift78 = shufflevector <2 x float> %45, <2 x float> poison, <2 x i32> <i32 1, i32 poison>
  %46 = fadd <2 x float> %44, %shift78
  %47 = extractelement <2 x float> %46, i64 0
  %48 = fcmp olt float %.03871, %47
  %49 = select i1 %48, float %.03871, float %47
  %50 = fcmp ogt float %.03970, %47
  %51 = select i1 %50, float %.03970, float %47
  %indvars.iv.next = add nuw nsw i64 %indvars.iv, 1
  %exitcond.not = icmp eq i64 %indvars.iv.next, %wide.trip.count
  br i1 %exitcond.not, label %._crit_edge, label %.lr.ph, !llvm.loop !198

52:                                               ; preds = %2
  %53 = getelementptr inbounds nuw i8, ptr %0, i64 132
  %54 = load <2 x float>, ptr %53, align 4
  %55 = fmul <2 x float> %1, %54
  %56 = fmul <2 x float> %1, %54
  %shift79 = shufflevector <2 x float> %56, <2 x float> poison, <2 x i32> <i32 1, i32 poison>
  %57 = fadd <2 x float> %55, %shift79
  %58 = getelementptr inbounds nuw i8, ptr %0, i64 140
  %59 = load <2 x float>, ptr %58, align 4
  %60 = fmul <2 x float> %1, %59
  %61 = fmul <2 x float> %1, %59
  %shift80 = shufflevector <2 x float> %61, <2 x float> poison, <2 x i32> <i32 1, i32 poison>
  %62 = fadd <2 x float> %60, %shift80
  %63 = fsub <2 x float> %62, %57
  %64 = extractelement <2 x float> %63, i64 0
  %65 = fcmp olt float %64, 0.000000e+00
  %66 = fneg float %64
  %67 = select i1 %65, float %66, float %64
  br label %84

68:                                               ; preds = %2
  %69 = getelementptr inbounds nuw i8, ptr %0, i64 140
  %70 = load <2 x float>, ptr %69, align 4
  %71 = fmul <2 x float> %1, %70
  %72 = fmul <2 x float> %1, %70
  %shift81 = shufflevector <2 x float> %72, <2 x float> poison, <2 x i32> <i32 1, i32 poison>
  %73 = fadd <2 x float> %71, %shift81
  %74 = getelementptr inbounds nuw i8, ptr %0, i64 148
  %75 = load <2 x float>, ptr %74, align 4
  %76 = fmul <2 x float> %1, %75
  %77 = fmul <2 x float> %1, %75
  %shift82 = shufflevector <2 x float> %77, <2 x float> poison, <2 x i32> <i32 1, i32 poison>
  %78 = fadd <2 x float> %76, %shift82
  %79 = fsub <2 x float> %78, %73
  %80 = extractelement <2 x float> %79, i64 0
  %81 = fcmp olt float %80, 0.000000e+00
  %82 = fneg float %80
  %83 = select i1 %81, float %82, float %80
  br label %84

84:                                               ; preds = %2, %68, %52, %._crit_edge, %23, %5
  %.0 = phi float [ %83, %68 ], [ %67, %52 ], [ %41, %._crit_edge ], [ %26, %23 ], [ %22, %5 ], [ 0.000000e+00, %2 ]
  ret float %.0
}